target datalayout = "e-m:e-p270:32:32-p271:32:32-p272:64:64-i64:64-i128:128-f80:128-n8:16:32:64-S128"
target triple = "x86_64-unknown-linux-gnu"

%struct.AddressSpace = type { %struct.rcu_head, ptr, ptr, ptr, i32, i32, ptr, %union.anon.7, %union.anon.8 }
%struct.rcu_head = type { ptr, ptr }
%union.anon.7 = type { %struct.QTailQLink }
%struct.QTailQLink = type { ptr, ptr }
%union.anon.8 = type { %struct.QTailQLink }
%struct.AHCIState = type { ptr, ptr, %struct.AHCIControlRegs, %struct.MemoryRegion, %struct.MemoryRegion, i32, i32, i32, ptr, ptr }
%struct.AHCIControlRegs = type { i32, i32, i32, i32, i32 }
%struct.MemoryRegion = type { %struct.Object, i8, i8, i8, i8, i8, i8, i8, i8, i8, i8, ptr, ptr, ptr, ptr, ptr, ptr, i32, i128, i64, ptr, i64, i8, i8, i8, i8, i8, ptr, i64, i32, %union.anon, %union.anon.0, %union.anon.1, ptr, i32, ptr, ptr, i8 }
%struct.Object = type { ptr, ptr, ptr, i32, ptr }
%union.anon = type { %struct.QTailQLink }
%union.anon.0 = type { %struct.QTailQLink }
%union.anon.1 = type { %struct.QTailQLink }
%struct.AHCIDevice = type { %struct.IDEDMA, %struct.IDEBus, i32, i32, i32, %struct.AHCIPortRegs, ptr, ptr, ptr, ptr, i8, i32, i8, ptr, [32 x %struct.NCQTransferState], %struct.MemReentrancyGuard }
%struct.IDEDMA = type { ptr, %struct.QEMUIOVector, ptr }
%struct.QEMUIOVector = type { ptr, i32, %union.anon.3 }
%union.anon.3 = type { %struct.anon.4 }
%struct.anon.4 = type { i32, %struct.iovec }
%struct.iovec = type { ptr, i64 }
%struct.IDEBus = type { %struct.BusState, ptr, ptr, [2 x %struct.IDEState], ptr, i32, i32, ptr, i8, i8, ptr, i32, i8, i64, i32, %struct.PortioList, %struct.PortioList, ptr }
%struct.BusState = type { %struct.Object, ptr, ptr, ptr, i32, i8, i8, i32, %union.BusChildHead, %struct.BusStateEntry, %struct.ResettableState }
%union.BusChildHead = type { %struct.QTailQLink }
%struct.BusStateEntry = type { ptr, ptr }
%struct.ResettableState = type { i32, i8, i8 }
%struct.IDEState = type { ptr, i8, i32, i32, i32, i32, i32, i32, i32, i64, i32, i32, [512 x i8], i32, [21 x i8], [41 x i8], i64, i8, i8, i32, i8, i8, i8, i8, i8, i8, i8, i8, i8, i8, i8, i8, i8, ptr, [9 x i8], %struct.unreported_events, i8, i8, i8, i8, i8, i32, i32, i32, i32, i32, i32, %struct.BlockAcctCookie, ptr, %struct.QEMUIOVector, %struct.anon.6, i64, i32, %struct.QEMUSGList, i32, ptr, ptr, ptr, ptr, i32, i32, i32, i8, ptr, i32, i8, i32, ptr, i32, i32, i8, i8, i32, i8, ptr, i32 }
%struct.unreported_events = type { i8, i8 }
%struct.BlockAcctCookie = type { i64, i64, i32 }
%struct.anon.6 = type { ptr }
%struct.QEMUSGList = type { ptr, i32, i32, i64, ptr, ptr }
%struct.PortioList = type { ptr, ptr, ptr, i32, ptr, ptr, ptr, i8 }
%struct.AHCIPortRegs = type { i32, i32, i32, i32, i32, i32, i32, i32, i32, i32, i32, i32, i32, i32, i32, i32 }
%struct.NCQTransferState = type { ptr, ptr, ptr, %struct.QEMUSGList, %struct.BlockAcctCookie, i32, i64, i8, i8, i8, i8, i8 }
%struct.MemReentrancyGuard = type { i8 }
%struct.AHCIPCIState = type { %struct.PCIDevice, %struct.AHCIState }
%struct.PCIDevice = type { %struct.DeviceState, i8, i8, ptr, ptr, ptr, ptr, ptr, i32, %struct.PCIReqIDCache, [64 x i8], [7 x %struct.PCIIORegion], %struct.AddressSpace, %struct.MemoryRegion, %struct.MemoryRegion, ptr, ptr, [3 x ptr], i8, i8, i32, i8, i32, ptr, ptr, ptr, ptr, ptr, ptr, %struct.MemoryRegion, %struct.MemoryRegion, %struct.MemoryRegion, ptr, i8, i32, i8, %struct.PCIExpressDevice, ptr, ptr, i32, i8, %struct.MemoryRegion, i32, ptr, ptr, ptr, ptr, ptr, i32 }
%struct.DeviceState = type { %struct.Object, ptr, ptr, i8, i8, i64, ptr, i32, i8, ptr, %struct.NamedGPIOListHead, %struct.NamedClockListHead, %struct.BusStateHead, i32, i32, i32, %struct.ResettableState, ptr, %struct.MemReentrancyGuard }
%struct.NamedGPIOListHead = type { ptr }
%struct.NamedClockListHead = type { ptr }
%struct.BusStateHead = type { ptr }
%struct.PCIReqIDCache = type { ptr, i32 }
%struct.PCIIORegion = type { i64, i64, i8, ptr, ptr }
%struct.PCIExpressDevice = type { i8, i8, i8, i16, %struct.PCIEAERLog, i16, i16, i16, %struct.PCIESriovPF, %struct.PCIESriovVF }
%struct.PCIEAERLog = type { i16, i16, ptr }
%struct.PCIESriovPF = type { i16, [7 x i8], ptr, ptr }
%struct.PCIESriovVF = type { ptr, i16 }

@.str.232 = private unnamed_addr constant [100 x i8] c"/home/dtcxzyw/WorkSpace/Projects/compilers/llvm-opt-benchmark/bench/qemu/qemu/include/hw/ide/ahci.h\00", align 1
@.str.237 = private unnamed_addr constant [10 x i8] c"ich9-ahci\00", align 1
@__func__.ICH9_AHCI = private unnamed_addr constant [10 x i8] c"ICH9_AHCI\00", align 1

; Function Attrs: nounwind sspstrong uwtable
define internal ptr @ICH9_AHCI(ptr noundef %obj) #0 {
entry:
  %obj.addr = alloca ptr, align 8
  store ptr %obj, ptr %obj.addr, align 8
  %0 = load ptr, ptr %obj.addr, align 8
  %call = call ptr @object_dynamic_cast_assert(ptr noundef %0, ptr noundef @.str.237, ptr noundef @.str.232, i32 noundef 56, ptr noundef @__func__.ICH9_AHCI)
  ret ptr %call
}

; Function Attrs: nounwind sspstrong uwtable
define dso_local void @ahci_ide_create_devs(ptr noundef %dev, ptr noundef %hd) #0 {
entry:
  %dev.addr = alloca ptr, align 8
  %hd.addr = alloca ptr, align 8
  %d = alloca ptr, align 8
  %ahci = alloca ptr, align 8
  %i = alloca i32, align 4
  store ptr %dev, ptr %dev.addr, align 8
  store ptr %hd, ptr %hd.addr, align 8
  %0 = load ptr, ptr %dev.addr, align 8
  %call = call ptr @ICH9_AHCI(ptr noundef %0)
  store ptr %call, ptr %d, align 8
  %1 = load ptr, ptr %d, align 8
  %ahci1 = getelementptr inbounds %struct.AHCIPCIState, ptr %1, i32 0, i32 1
  store ptr %ahci1, ptr %ahci, align 8
  store i32 0, ptr %i, align 4
  br label %for.cond

for.cond:                                         ; preds = %for.inc, %entry
  %2 = load i32, ptr %i, align 4
  %3 = load ptr, ptr %ahci, align 8
  %ports = getelementptr inbounds %struct.AHCIState, ptr %3, i32 0, i32 7
  %4 = load i32, ptr %ports, align 8
  %cmp = icmp slt i32 %2, %4
  br i1 %cmp, label %for.body, label %for.end

for.body:                                         ; preds = %for.cond
  %5 = load ptr, ptr %hd.addr, align 8
  %6 = load i32, ptr %i, align 4
  %idxprom = sext i32 %6 to i64
  %arrayidx = getelementptr ptr, ptr %5, i64 %idxprom
  %7 = load ptr, ptr %arrayidx, align 8
  %cmp2 = icmp eq ptr %7, null
  br i1 %cmp2, label %if.then, label %if.end

if.then:                                          ; preds = %for.body
  br label %for.inc

if.end:                                           ; preds = %for.body
  %8 = load ptr, ptr %ahci, align 8
  %dev3 = getelementptr inbounds %struct.AHCIState, ptr %8, i32 0, i32 1
  %9 = load ptr, ptr %dev3, align 8
  %10 = load i32, ptr %i, align 4
  %idxprom4 = sext i32 %10 to i64
  %arrayidx5 = getelementptr %struct.AHCIDevice, ptr %9, i64 %idxprom4
  %port = getelementptr inbounds %struct.AHCIDevice, ptr %arrayidx5, i32 0, i32 1
  %11 = load ptr, ptr %hd.addr, align 8
  %12 = load i32, ptr %i, align 4
  %idxprom6 = sext i32 %12 to i64
  %arrayidx7 = getelementptr ptr, ptr %11, i64 %idxprom6
  %13 = load ptr, ptr %arrayidx7, align 8
  %call8 = call ptr @ide_bus_create_drive(ptr noundef %port, i32 noundef 0, ptr noundef %13)
  br label %for.inc

for.inc:                                          ; preds = %if.end, %if.then
  %14 = load i32, ptr %i, align 4
  %inc = add i32 %14, 1
  store i32 %inc, ptr %i, align 4
  br label %for.cond, !llvm.loop !14

for.end:                                          ; preds = %for.cond
  ret void
}