; Function Attrs: nounwind sspstrong uwtable
define dso_local void @ahci_ide_create_devs(ptr noundef %dev, ptr noundef readonly captures(none) %hd) local_unnamed_addr #0 {
entry:
  %call.i = tail call ptr @object_dynamic_cast_assert(ptr noundef %dev, ptr noundef nonnull @.str.237, ptr noundef nonnull @.str.232, i32 noundef 56, ptr noundef nonnull @__func__.ICH9_AHCI) #12
  %ports = getelementptr inbounds nuw i8, ptr %call.i, i64 3208
  %0 = load i32, ptr %ports, align 8
  %cmp7 = icmp sgt i32 %0, 0
  br i1 %cmp7, label %for.body.lr.ph, label %for.end

for.body.lr.ph:                                   ; preds = %entry
  %dev3 = getelementptr inbounds nuw i8, ptr %call.i, i64 2616
  br label %for.body

for.body:                                         ; preds = %for.body.lr.ph, %for.inc
  %1 = phi i32 [ %0, %for.body.lr.ph ], [ %4, %for.inc ]
  %indvars.iv = phi i64 [ 0, %for.body.lr.ph ], [ %indvars.iv.next, %for.inc ]
  %arrayidx = getelementptr ptr, ptr %hd, i64 %indvars.iv
  %2 = load ptr, ptr %arrayidx, align 8
  %cmp2 = icmp eq ptr %2, null
  br i1 %cmp2, label %for.inc, label %if.end

if.end:                                           ; preds = %for.body
  %3 = load ptr, ptr %dev3, align 8
  %port = getelementptr %struct.AHCIDevice, ptr %3, i64 %indvars.iv, i32 1
  %call8 = tail call ptr @ide_bus_create_drive(ptr noundef %port, i32 noundef 0, ptr noundef nonnull %2) #12
  %.pre = load i32, ptr %ports, align 8
  br label %for.inc

for.inc:                                          ; preds = %for.body, %if.end
  %4 = phi i32 [ %1, %for.body ], [ %.pre, %if.end ]
  %indvars.iv.next = add nuw nsw i64 %indvars.iv, 1
  %5 = sext i32 %4 to i64
  %cmp = icmp slt i64 %indvars.iv.next, %5
  br i1 %cmp, label %for.body, label %for.end, !llvm.loop !13

for.end:                                          ; preds = %for.inc, %entry
  ret void
}